; Function Attrs: mustprogress uwtable
define dso_local noundef ptr @_ZN4absl18debugging_internal11VDSOSupport4InitEv() local_unnamed_addr #0 align 2 personality ptr @__gxx_personality_v0 {
  %1 = alloca %struct.Elf64_auxv_t, align 8
  %2 = alloca %"class.absl::debugging_internal::VDSOSupport", align 8
  %3 = alloca %"struct.absl::debugging_internal::ElfMemImage::SymbolInfo", align 8
  %4 = load atomic i64, ptr @_ZN4absl18debugging_internal11VDSOSupport10vdso_base_E monotonic, align 8
  %5 = icmp eq i64 %4, ptrtoint (ptr @_ZN4absl18debugging_internal11ElfMemImage20kInvalidBaseSentinelE to i64)
  br i1 %5, label %6, label %12

6:                                                ; preds = %0
  %7 = tail call ptr @__errno_location() #7
  store i32 0, ptr %7, align 4, !tbaa !5
  %8 = tail call i64 @getauxval(i64 noundef 33) #8
  %9 = load i32, ptr %7, align 4, !tbaa !5
  %10 = icmp eq i32 %9, 0
  br i1 %10, label %11, label %12

11:                                               ; preds = %6
  store atomic i64 %8, ptr @_ZN4absl18debugging_internal11VDSOSupport10vdso_base_E monotonic, align 8
  br label %12

12:                                               ; preds = %6, %11, %0
  %13 = load atomic i64, ptr @_ZN4absl18debugging_internal11VDSOSupport10vdso_base_E monotonic, align 8
  %14 = icmp eq i64 %13, ptrtoint (ptr @_ZN4absl18debugging_internal11ElfMemImage20kInvalidBaseSentinelE to i64)
  br i1 %14, label %15, label %32

15:                                               ; preds = %12
  %16 = tail call i32 (ptr, i32, ...) @open(ptr noundef nonnull @.str, i32 noundef 0)
  %.not = icmp eq i32 %16, -1
  br i1 %.not, label %.thread, label %17

.thread:                                          ; preds = %15
  store atomic i64 0, ptr @_ZN4absl18debugging_internal11VDSOSupport10vdso_base_E monotonic, align 8
  store atomic i64 ptrtoint (ptr @_ZN4absl18debugging_internal11VDSOSupport16GetCPUViaSyscallEPjPvS3_ to i64), ptr @_ZN4absl18debugging_internal11VDSOSupport10getcpu_fn_E monotonic, align 8
  br label %48

17:                                               ; preds = %15
  call void @llvm.lifetime.start.p0(i64 16, ptr nonnull %1) #8
  br label %18

18:                                               ; preds = %21, %17
  %19 = call i64 @read(i32 noundef %16, ptr noundef nonnull %1, i64 noundef 16)
  %20 = icmp eq i64 %19, 16
  br i1 %20, label %21, label %.loopexit

21:                                               ; preds = %18
  %22 = load i64, ptr %1, align 8, !tbaa !9
  %23 = icmp eq i64 %22, 33
  br i1 %23, label %24, label %18, !llvm.loop !12

24:                                               ; preds = %21
  %25 = getelementptr inbounds nuw i8, ptr %1, i64 8
  %26 = load i64, ptr %25, align 8, !tbaa !14
  store atomic i64 %26, ptr @_ZN4absl18debugging_internal11VDSOSupport10vdso_base_E monotonic, align 8
  br label %.loopexit

.loopexit:                                        ; preds = %18, %24
  %27 = tail call i32 @close(i32 noundef %16)
  %28 = load atomic i64, ptr @_ZN4absl18debugging_internal11VDSOSupport10vdso_base_E monotonic, align 8
  %29 = icmp eq i64 %28, ptrtoint (ptr @_ZN4absl18debugging_internal11ElfMemImage20kInvalidBaseSentinelE to i64)
  br i1 %29, label %30, label %31

30:                                               ; preds = %.loopexit
  store atomic i64 0, ptr @_ZN4absl18debugging_internal11VDSOSupport10vdso_base_E monotonic, align 8
  br label %31

31:                                               ; preds = %.loopexit, %30
  call void @llvm.lifetime.end.p0(i64 16, ptr nonnull %1) #8
  br label %32

32:                                               ; preds = %31, %12
  %33 = load atomic i64, ptr @_ZN4absl18debugging_internal11VDSOSupport10vdso_base_E monotonic, align 8
  %.not10 = icmp eq i64 %33, 0
  br i1 %.not10, label %45, label %34

34:                                               ; preds = %32
  call void @llvm.lifetime.start.p0(i64 72, ptr nonnull %2) #8
  %35 = load atomic i64, ptr @_ZN4absl18debugging_internal11VDSOSupport10vdso_base_E monotonic, align 8
  %36 = icmp eq i64 %35, ptrtoint (ptr @_ZN4absl18debugging_internal11ElfMemImage20kInvalidBaseSentinelE to i64)
  br i1 %36, label %37, label %39

37:                                               ; preds = %34
  %38 = tail call noundef ptr @_ZN4absl18debugging_internal11VDSOSupport4InitEv()
  br label %_ZN4absl18debugging_internal11VDSOSupportC2Ev.exit

39:                                               ; preds = %34
  %40 = load atomic i64, ptr @_ZN4absl18debugging_internal11VDSOSupport10vdso_base_E monotonic, align 8
  %.0.i.i15 = inttoptr i64 %40 to ptr
  br label %_ZN4absl18debugging_internal11VDSOSupportC2Ev.exit

_ZN4absl18debugging_internal11VDSOSupportC2Ev.exit: ; preds = %37, %39
  %41 = phi ptr [ %38, %37 ], [ %.0.i.i15, %39 ]
  call void @_ZN4absl18debugging_internal11ElfMemImageC1EPKv(ptr noundef nonnull align 8 dereferenceable(72) %2, ptr noundef %41)
  call void @llvm.lifetime.start.p0(i64 32, ptr nonnull %3) #8
  %42 = call noundef zeroext i1 @_ZNK4absl18debugging_internal11ElfMemImage12LookupSymbolEPKcS3_iPNS1_10SymbolInfoE(ptr noundef nonnull align 8 dereferenceable(72) %2, ptr noundef nonnull @.str.1, ptr noundef nonnull @.str.2, i32 noundef 2, ptr noundef nonnull %3)
  %43 = getelementptr inbounds nuw i8, ptr %3, i64 16
  %44 = load ptr, ptr %43, align 8
  %.1 = select i1 %42, ptr %44, ptr @_ZN4absl18debugging_internal11VDSOSupport16GetCPUViaSyscallEPjPvS3_
  call void @llvm.lifetime.end.p0(i64 32, ptr nonnull %3) #8
  call void @llvm.lifetime.end.p0(i64 72, ptr nonnull %2) #8
  br label %45

45:                                               ; preds = %_ZN4absl18debugging_internal11VDSOSupportC2Ev.exit, %32
  %.0 = phi ptr [ %.1, %_ZN4absl18debugging_internal11VDSOSupportC2Ev.exit ], [ @_ZN4absl18debugging_internal11VDSOSupport16GetCPUViaSyscallEPjPvS3_, %32 ]
  %46 = ptrtoint ptr %.0 to i64
  store atomic i64 %46, ptr @_ZN4absl18debugging_internal11VDSOSupport10getcpu_fn_E monotonic, align 8
  %47 = load atomic i64, ptr @_ZN4absl18debugging_internal11VDSOSupport10vdso_base_E monotonic, align 8
  %.0.i.i14 = inttoptr i64 %47 to ptr
  br label %48

48:                                               ; preds = %.thread, %45
  %.18 = phi ptr [ %.0.i.i14, %45 ], [ null, %.thread ]
  ret ptr %.18
}